; Function Attrs: mustprogress nounwind uwtable
define internal fastcc void @_ZNSt8_Rb_treeIN5Yosys5RTLIL8IdStringESt4pairIKS2_N12_GLOBAL__N_114dff_map_info_tEESt10_Select1stIS7_ESt4lessIS2_ESaIS7_EE8_M_eraseEPSt13_Rb_tree_nodeIS7_E(ptr noundef %0) unnamed_addr #3 align 2 personality ptr @__gxx_personality_v0 {
  %.not7 = icmp eq ptr %0, null
  br i1 %.not7, label %._crit_edge, label %.lr.ph

.lr.ph:                                           ; preds = %1, %_ZNSt8_Rb_treeIN5Yosys5RTLIL8IdStringESt4pairIKS2_N12_GLOBAL__N_114dff_map_info_tEESt10_Select1stIS7_ESt4lessIS2_ESaIS7_EE12_M_drop_nodeEPSt13_Rb_tree_nodeIS7_E.exit
  %.08 = phi ptr [ %.0.val6, %_ZNSt8_Rb_treeIN5Yosys5RTLIL8IdStringESt4pairIKS2_N12_GLOBAL__N_114dff_map_info_tEESt10_Select1stIS7_ESt4lessIS2_ESaIS7_EE12_M_drop_nodeEPSt13_Rb_tree_nodeIS7_E.exit ], [ %0, %1 ]
  %2 = getelementptr i8, ptr %.08, i64 24
  %.0.val = load ptr, ptr %2, align 8
  tail call fastcc void @_ZNSt8_Rb_treeIN5Yosys5RTLIL8IdStringESt4pairIKS2_N12_GLOBAL__N_114dff_map_info_tEESt10_Select1stIS7_ESt4lessIS2_ESaIS7_EE8_M_eraseEPSt13_Rb_tree_nodeIS7_E(ptr noundef %.0.val)
  %3 = getelementptr i8, ptr %.08, i64 16
  %.0.val6 = load ptr, ptr %3, align 8
  %4 = getelementptr inbounds i8, ptr %.08, i64 32
  %5 = getelementptr inbounds i8, ptr %.08, i64 40
  tail call fastcc void @_ZN12_GLOBAL__N_114dff_map_info_tD2Ev(ptr noundef nonnull align 8 dereferenceable(256) %5) #23
  %6 = load i32, ptr %4, align 4
  %7 = load i8, ptr @_ZN5Yosys5RTLIL8IdString17destruct_guard_okE, align 1
  %8 = and i8 %7, 1
  %9 = icmp ne i8 %8, 0
  %10 = icmp ne i32 %6, 0
  %or.cond.i.i.i.i.i.i.i = and i1 %10, %9
  br i1 %or.cond.i.i.i.i.i.i.i, label %11, label %_ZNSt8_Rb_treeIN5Yosys5RTLIL8IdStringESt4pairIKS2_N12_GLOBAL__N_114dff_map_info_tEESt10_Select1stIS7_ESt4lessIS2_ESaIS7_EE12_M_drop_nodeEPSt13_Rb_tree_nodeIS7_E.exit

11:                                               ; preds = %.lr.ph
  %12 = sext i32 %6 to i64
  %13 = load ptr, ptr @_ZN5Yosys5RTLIL8IdString24global_refcount_storage_E, align 8
  %14 = getelementptr inbounds i32, ptr %13, i64 %12
  %15 = load i32, ptr %14, align 4
  %16 = add nsw i32 %15, -1
  store i32 %16, ptr %14, align 4
  %17 = icmp sgt i32 %15, 1
  br i1 %17, label %_ZNSt8_Rb_treeIN5Yosys5RTLIL8IdStringESt4pairIKS2_N12_GLOBAL__N_114dff_map_info_tEESt10_Select1stIS7_ESt4lessIS2_ESaIS7_EE12_M_drop_nodeEPSt13_Rb_tree_nodeIS7_E.exit, label %18

18:                                               ; preds = %11
  invoke void @_ZN5Yosys5RTLIL8IdString14free_referenceEi(i32 noundef %6)
          to label %_ZNSt8_Rb_treeIN5Yosys5RTLIL8IdStringESt4pairIKS2_N12_GLOBAL__N_114dff_map_info_tEESt10_Select1stIS7_ESt4lessIS2_ESaIS7_EE12_M_drop_nodeEPSt13_Rb_tree_nodeIS7_E.exit unwind label %19

19:                                               ; preds = %18
  %20 = landingpad { ptr, i32 }
          catch ptr null
  %21 = extractvalue { ptr, i32 } %20, 0
  tail call void @__clang_call_terminate(ptr %21) #28
  unreachable

_ZNSt8_Rb_treeIN5Yosys5RTLIL8IdStringESt4pairIKS2_N12_GLOBAL__N_114dff_map_info_tEESt10_Select1stIS7_ESt4lessIS2_ESaIS7_EE12_M_drop_nodeEPSt13_Rb_tree_nodeIS7_E.exit: ; preds = %.lr.ph, %11, %18
  tail call void @_ZdlPv(ptr noundef nonnull %.08) #24
  %.not = icmp eq ptr %.0.val6, null
  br i1 %.not, label %._crit_edge, label %.lr.ph, !llvm.loop !676

._crit_edge:                                      ; preds = %_ZNSt8_Rb_treeIN5Yosys5RTLIL8IdStringESt4pairIKS2_N12_GLOBAL__N_114dff_map_info_tEESt10_Select1stIS7_ESt4lessIS2_ESaIS7_EE12_M_drop_nodeEPSt13_Rb_tree_nodeIS7_E.exit, %1
  ret void
}